; ModuleID = 'source-C-CXX/15/441.c'
source_filename = "source-C-CXX/15/441.c"
target datalayout = "e-m:e-p270:32:32-p271:32:32-p272:64:64-i64:64-f80:128-n8:16:32:64-S128"
target triple = "x86_64-pc-linux-gnu"

@.str = private unnamed_addr constant [3 x i8] c"%d\00", align 1

; Function Attrs: nofree nounwind sspstrong uwtable
define dso_local i32 @main() local_unnamed_addr #0 {
  %1 = alloca i32, align 4
  %2 = alloca [10 x i32], align 16
  %3 = bitcast i32* %1 to i8*
  call void @llvm.lifetime.start.p0i8(i64 4, i8* nonnull %3) #5
  %4 = call i32 (i8*, ...) @__isoc99_scanf(i8* getelementptr inbounds ([3 x i8], [3 x i8]* @.str, i64 0, i64 0), i32* nonnull %1)
  %5 = bitcast [10 x i32]* %2 to i8*
  call void @llvm.lifetime.start.p0i8(i64 40, i8* nonnull %5) #5
  %6 = load i32, i32* %1, align 4, !tbaa !5
  %7 = icmp eq i32 %6, 0
  br i1 %7, label %8, label %15

8:                                                ; preds = %0
  %9 = call i32 @putchar(i32 48)
  br label %31

10:                                               ; preds = %15
  store i32 %20, i32* %1, align 4, !tbaa !5
  %11 = trunc i64 %16 to i32
  %12 = call i32 @llvm.umax.i32(i32 %11, i32 1)
  %13 = add i32 %12, 1
  %14 = zext i32 %13 to i64
  br label %24

15:                                               ; preds = %0, %15
  %16 = phi i64 [ %21, %15 ], [ 1, %0 ]
  %17 = phi i32 [ %20, %15 ], [ %6, %0 ]
  %18 = srem i32 %17, 10
  %19 = getelementptr inbounds [10 x i32], [10 x i32]* %2, i64 0, i64 %16
  store i32 %18, i32* %19, align 4, !tbaa !5
  %20 = sdiv i32 %17, 10
  %21 = add nuw i64 %16, 1
  %22 = add i32 %17, 9
  %23 = icmp ult i32 %22, 19
  br i1 %23, label %10, label %15, !llvm.loop !9

24:                                               ; preds = %10, %24
  %25 = phi i64 [ 1, %10 ], [ %29, %24 ]
  %26 = getelementptr inbounds [10 x i32], [10 x i32]* %2, i64 0, i64 %25
  %27 = load i32, i32* %26, align 4, !tbaa !5
  %28 = call i32 (i8*, ...) @printf(i8* nonnull dereferenceable(1) getelementptr inbounds ([3 x i8], [3 x i8]* @.str, i64 0, i64 0), i32 %27)
  %29 = add nuw nsw i64 %25, 1
  %30 = icmp eq i64 %29, %14
  br i1 %30, label %31, label %24, !llvm.loop !11

31:                                               ; preds = %24, %8
  call void @llvm.lifetime.end.p0i8(i64 40, i8* nonnull %5) #5
  call void @llvm.lifetime.end.p0i8(i64 4, i8* nonnull %3) #5
  ret i32 0
}

; Function Attrs: argmemonly mustprogress nofree nosync nounwind willreturn
declare void @llvm.lifetime.start.p0i8(i64 immarg, i8* nocapture) #1

; Function Attrs: nofree nounwind
declare noundef i32 @__isoc99_scanf(i8* nocapture noundef readonly, ...) local_unnamed_addr #2

; Function Attrs: nofree nounwind
declare noundef i32 @printf(i8* nocapture noundef readonly, ...) local_unnamed_addr #2

; Function Attrs: argmemonly mustprogress nofree nosync nounwind willreturn
declare void @llvm.lifetime.end.p0i8(i64 immarg, i8* nocapture) #1

; Function Attrs: nofree nounwind
declare noundef i32 @putchar(i32 noundef) local_unnamed_addr #3

; Function Attrs: nofree nosync nounwind readnone speculatable willreturn
declare i32 @llvm.umax.i32(i32, i32) #4


!llvm.module.flags = !{!0, !1, !2, !3}
!llvm.ident = !{!4}

!0 = !{i32 1, !"wchar_size", i32 4}
!1 = !{i32 7, !"PIC Level", i32 2}
!2 = !{i32 7, !"PIE Level", i32 2}
!3 = !{i32 7, !"uwtable", i32 1}
!4 = !{!"clang version 13.0.0"}
!5 = !{!6, !6, i64 0}
!6 = !{!"int", !7, i64 0}
!7 = !{!"omnipotent char", !8, i64 0}
!8 = !{!"Simple C/C++ TBAA"}
!9 = distinct !{!9, !10}
!10 = !{!"llvm.loop.mustprogress"}
!11 = distinct !{!11, !10}
